; Function Attrs: mustprogress uwtable
define { ptr, i8 } @_ZN5boost3log11v2_mt_posix4core20add_global_attributeERKNS1_14attribute_nameERKNS1_9attributeE(ptr nocapture noundef nonnull readonly align 8 dereferenceable(8) %0, ptr nocapture noundef nonnull readonly align 4 dereferenceable(4) %1, ptr noundef nonnull align 8 dereferenceable(8) %2) local_unnamed_addr #4 align 2 personality ptr @__gxx_personality_v0 {
  %4 = load ptr, ptr %0, align 8, !tbaa !33
  %5 = tail call i32 @pthread_rwlock_wrlock(ptr noundef nonnull align 8 dereferenceable(56) %4) #21
  %6 = load ptr, ptr %0, align 8, !tbaa !33
  %7 = getelementptr inbounds nuw i8, ptr %6, i64 96
  %.sroa.01.0.copyload = load i32, ptr %1, align 4, !tbaa !73
  %8 = invoke { ptr, i8 } @_ZN5boost3log11v2_mt_posix13attribute_set6insertENS1_14attribute_nameERKNS1_9attributeE(ptr noundef nonnull align 8 dereferenceable(8) %7, i32 %.sroa.01.0.copyload, ptr noundef nonnull align 8 dereferenceable(8) %2)
          to label %9 unwind label %11

9:                                                ; preds = %3
  %10 = tail call i32 @pthread_rwlock_unlock(ptr noundef nonnull align 8 dereferenceable(56) %4) #21
  ret { ptr, i8 } %8

11:                                               ; preds = %3
  %12 = landingpad { ptr, i32 }
          cleanup
  %13 = tail call i32 @pthread_rwlock_unlock(ptr noundef nonnull align 8 dereferenceable(56) %4) #21
  resume { ptr, i32 } %12
}